target datalayout = "e-m:e-p270:32:32-p271:32:32-p272:64:64-i64:64-i128:128-f80:128-n8:16:32:64-S128"
target triple = "x86_64-pc-linux-gnu"

%struct._zend_executor_globals = type { %struct._zval_struct, %struct._zval_struct, [32 x ptr], ptr, ptr, %struct._zend_array, %struct._zend_array, ptr, i32, i8, %struct._zval_struct, i32, ptr, ptr, ptr, ptr, ptr, ptr, i64, ptr, ptr, i32, ptr, i32, i64, i32, i32, i32, i8, i8, %struct.zend_atomic_bool_s, %struct.zend_atomic_bool_s, ptr, i64, ptr, ptr, %struct._zend_array, %struct._zend_array, i32, i8, %struct._zval_struct, %struct._zval_struct, %struct._zend_stack, %struct._zend_stack, %struct._zend_stack, ptr, i32, i32, i64, ptr, ptr, ptr, %struct._zend_objects_store, %struct._zend_lazy_objects_store, ptr, ptr, ptr, [3 x %struct._zend_op], ptr, i8, i8, i64, i32, i32, ptr, [16 x %struct._HashTableIterator], ptr, %union._zend_function, %struct._zend_op, %struct._zend_array, i64, %struct.zend_get_gc_buffer, ptr, ptr, ptr, i64, i8, i32, ptr, ptr, i64, %struct._zend_call_stack, i64, i64, %struct._zend_strtod_state, [6 x ptr] }
%struct.zend_atomic_bool_s = type { i8 }
%struct._zval_struct = type { %union._zend_value, %union.anon, %union.anon.2 }
%union._zend_value = type { i64 }
%union.anon = type { i32 }
%union.anon.2 = type { i32 }
%struct._zend_stack = type { i32, i32, i32, ptr }
%struct._zend_objects_store = type { ptr, i32, i32, i32 }
%struct._zend_lazy_objects_store = type { %struct._zend_array }
%struct._HashTableIterator = type { ptr, i32, i32 }
%union._zend_function = type { %struct._zend_op_array }
%struct._zend_op_array = type { i8, [3 x i8], i32, ptr, ptr, ptr, i32, i32, ptr, ptr, ptr, ptr, i32, ptr, i32, i32, i32, ptr, ptr, ptr, ptr, ptr, i32, i32, ptr, ptr, ptr, i32, i32, i32, i32, ptr, ptr, [6 x ptr] }
%struct._zend_op = type { ptr, %union._znode_op, %union._znode_op, %union._znode_op, i32, i32, i8, i8, i8, i8 }
%union._znode_op = type { i32 }
%struct._zend_array = type { %struct._zend_refcounted_h, %union.anon.4, i32, %union.anon.6, i32, i32, i32, i32, i64, ptr }
%struct._zend_refcounted_h = type { i32, %union.anon.3 }
%union.anon.3 = type { i32 }
%union.anon.4 = type { i32 }
%union.anon.6 = type { ptr }
%struct.zend_get_gc_buffer = type { ptr, ptr, ptr }
%struct._zend_call_stack = type { ptr, i64 }
%struct._zend_strtod_state = type { [8 x ptr], ptr, ptr }
%struct._zend_execute_data = type { ptr, ptr, ptr, ptr, %struct._zval_struct, ptr, ptr, ptr, ptr }
%struct._spl_dllist_object = type { ptr, ptr, i32, i32, ptr, ptr, ptr, ptr, ptr, ptr, %struct._zend_object }
%struct._zend_object = type { %struct._zend_refcounted_h, i32, i32, ptr, ptr, ptr, [1 x %struct._zval_struct] }
%struct._spl_ptr_llist = type { ptr, ptr, i32 }
%struct._spl_ptr_llist_element = type { ptr, ptr, %struct._zval_struct }

@executor_globals = external global %struct._zend_executor_globals, align 8

; Function Attrs: nounwind uwtable
define internal void @spl_dllist_it_helper_rewind(ptr noundef %0, ptr noundef %1, ptr noundef %2, i32 noundef %3) #0 {
  %5 = alloca ptr, align 8
  %6 = alloca ptr, align 8
  %7 = alloca ptr, align 8
  %8 = alloca i32, align 4
  store ptr %0, ptr %5, align 8, !tbaa !82
  store ptr %1, ptr %6, align 8, !tbaa !84
  store ptr %2, ptr %7, align 8, !tbaa !55
  store i32 %3, ptr %8, align 4, !tbaa !64
  %9 = load ptr, ptr %5, align 8, !tbaa !82
  %10 = load ptr, ptr %9, align 8, !tbaa !56
  %11 = icmp ne ptr %10, null
  br i1 %11, label %12, label %23

12:                                               ; preds = %4
  %13 = load ptr, ptr %5, align 8, !tbaa !82
  %14 = load ptr, ptr %13, align 8, !tbaa !56
  %15 = getelementptr inbounds nuw %struct._spl_ptr_llist_element, ptr %14, i32 0, i32 2
  %16 = getelementptr inbounds nuw %struct._zval_struct, ptr %15, i32 0, i32 2
  %17 = load i32, ptr %16, align 4, !tbaa !11
  %18 = add i32 %17, -1
  store i32 %18, ptr %16, align 4, !tbaa !11
  %19 = icmp ne i32 %18, 0
  br i1 %19, label %23, label %20

20:                                               ; preds = %12
  %21 = load ptr, ptr %5, align 8, !tbaa !82
  %22 = load ptr, ptr %21, align 8, !tbaa !56
  call void @_efree(ptr noundef %22)
  br label %23

23:                                               ; preds = %20, %12, %4
  %24 = load i32, ptr %8, align 4, !tbaa !64
  %25 = and i32 %24, 2
  %26 = icmp ne i32 %25, 0
  br i1 %26, label %27, label %37

27:                                               ; preds = %23
  %28 = load ptr, ptr %7, align 8, !tbaa !55
  %29 = getelementptr inbounds nuw %struct._spl_ptr_llist, ptr %28, i32 0, i32 2
  %30 = load i32, ptr %29, align 8, !tbaa !66
  %31 = sub nsw i32 %30, 1
  %32 = load ptr, ptr %6, align 8, !tbaa !84
  store i32 %31, ptr %32, align 4, !tbaa !64
  %33 = load ptr, ptr %7, align 8, !tbaa !55
  %34 = getelementptr inbounds nuw %struct._spl_ptr_llist, ptr %33, i32 0, i32 1
  %35 = load ptr, ptr %34, align 8, !tbaa !57
  %36 = load ptr, ptr %5, align 8, !tbaa !82
  store ptr %35, ptr %36, align 8, !tbaa !56
  br label %43

37:                                               ; preds = %23
  %38 = load ptr, ptr %6, align 8, !tbaa !84
  store i32 0, ptr %38, align 4, !tbaa !64
  %39 = load ptr, ptr %7, align 8, !tbaa !55
  %40 = getelementptr inbounds nuw %struct._spl_ptr_llist, ptr %39, i32 0, i32 0
  %41 = load ptr, ptr %40, align 8, !tbaa !65
  %42 = load ptr, ptr %5, align 8, !tbaa !82
  store ptr %41, ptr %42, align 8, !tbaa !56
  br label %43

43:                                               ; preds = %37, %27
  %44 = load ptr, ptr %5, align 8, !tbaa !82
  %45 = load ptr, ptr %44, align 8, !tbaa !56
  %46 = icmp ne ptr %45, null
  br i1 %46, label %47, label %54

47:                                               ; preds = %43
  %48 = load ptr, ptr %5, align 8, !tbaa !82
  %49 = load ptr, ptr %48, align 8, !tbaa !56
  %50 = getelementptr inbounds nuw %struct._spl_ptr_llist_element, ptr %49, i32 0, i32 2
  %51 = getelementptr inbounds nuw %struct._zval_struct, ptr %50, i32 0, i32 2
  %52 = load i32, ptr %51, align 4, !tbaa !11
  %53 = add i32 %52, 1
  store i32 %53, ptr %51, align 4, !tbaa !11
  br label %54

54:                                               ; preds = %47, %43
  ret void
}

; Function Attrs: inlinehint nounwind uwtable
define internal ptr @spl_dllist_from_obj(ptr noundef %0) #4 {
  %2 = alloca ptr, align 8
  store ptr %0, ptr %2, align 8, !tbaa !54
  %3 = load ptr, ptr %2, align 8, !tbaa !54
  %4 = getelementptr inbounds i8, ptr %3, i64 -72
  ret ptr %4
}

; Function Attrs: nounwind uwtable
define hidden void @zim_SplDoublyLinkedList_rewind(ptr noundef %0, ptr noundef %1) #0 {
  %3 = alloca ptr, align 8
  %4 = alloca ptr, align 8
  %5 = alloca ptr, align 8
  %6 = alloca i32, align 4
  store ptr %0, ptr %3, align 8, !tbaa !4
  store ptr %1, ptr %4, align 8, !tbaa !9
  call void @llvm.lifetime.start.p0(i64 8, ptr %5) #14
  %7 = load ptr, ptr %3, align 8, !tbaa !4
  %8 = getelementptr inbounds nuw %struct._zend_execute_data, ptr %7, i32 0, i32 4
  %9 = getelementptr inbounds nuw %struct._zval_struct, ptr %8, i32 0, i32 0
  %10 = load ptr, ptr %9, align 8, !tbaa !11
  %11 = call ptr @spl_dllist_from_obj(ptr noundef %10)
  store ptr %11, ptr %5, align 8, !tbaa !45
  %12 = load ptr, ptr %3, align 8, !tbaa !4
  %13 = getelementptr inbounds nuw %struct._zend_execute_data, ptr %12, i32 0, i32 4
  %14 = getelementptr inbounds nuw %struct._zval_struct, ptr %13, i32 0, i32 2
  %15 = load i32, ptr %14, align 4, !tbaa !11
  %16 = icmp eq i32 %15, 0
  %17 = xor i1 %16, true
  %18 = xor i1 %17, true
  %19 = zext i1 %18 to i32
  %20 = sext i32 %19 to i64
  %21 = call i64 @llvm.expect.i64(i64 %20, i64 1)
  %22 = icmp ne i64 %21, 0
  br i1 %22, label %23, label %24

23:                                               ; preds = %2
  br label %25

24:                                               ; preds = %2
  call void @zend_wrong_parameters_none_error()
  br label %25

25:                                               ; preds = %24, %23
  %26 = phi i32 [ 0, %23 ], [ -1, %24 ]
  %27 = icmp eq i32 %26, -1
  br i1 %27, label %28, label %34

28:                                               ; preds = %25
  br label %29

29:                                               ; preds = %28
  %30 = load ptr, ptr getelementptr inbounds nuw (%struct._zend_executor_globals, ptr @executor_globals, i32 0, i32 54), align 8, !tbaa !12
  %31 = icmp ne ptr %30, null
  call void @llvm.assume(i1 %31)
  store i32 1, ptr %6, align 4
  br label %45

32:                                               ; No predecessors!
  br label %33

33:                                               ; preds = %32
  br label %34

34:                                               ; preds = %33, %25
  %35 = load ptr, ptr %5, align 8, !tbaa !45
  %36 = getelementptr inbounds nuw %struct._spl_dllist_object, ptr %35, i32 0, i32 1
  %37 = load ptr, ptr %5, align 8, !tbaa !45
  %38 = getelementptr inbounds nuw %struct._spl_dllist_object, ptr %37, i32 0, i32 2
  %39 = load ptr, ptr %5, align 8, !tbaa !45
  %40 = getelementptr inbounds nuw %struct._spl_dllist_object, ptr %39, i32 0, i32 0
  %41 = load ptr, ptr %40, align 8, !tbaa !47
  %42 = load ptr, ptr %5, align 8, !tbaa !45
  %43 = getelementptr inbounds nuw %struct._spl_dllist_object, ptr %42, i32 0, i32 3
  %44 = load i32, ptr %43, align 4, !tbaa !73
  call void @spl_dllist_it_helper_rewind(ptr noundef %36, ptr noundef %38, ptr noundef %41, i32 noundef %44)
  store i32 0, ptr %6, align 4
  br label %45

45:                                               ; preds = %34, %29
  call void @llvm.lifetime.end.p0(i64 8, ptr %5) #14
  %46 = load i32, ptr %6, align 4
  switch i32 %46, label %48 [
    i32 0, label %47
    i32 1, label %47
  ]

47:                                               ; preds = %45, %45
  ret void

48:                                               ; preds = %45
  unreachable
}