; Function Attrs: nounwind uwtable
define hidden void @zim_SplDoublyLinkedList_rewind(ptr noundef readonly captures(none) %0, ptr readnone captures(none) %1) #0 {
  %3 = getelementptr inbounds nuw i8, ptr %0, i64 44
  %4 = load i32, ptr %3, align 4, !tbaa !4
  %.not = icmp eq i32 %4, 0
  br i1 %.not, label %.critedge, label %5, !prof !59

5:                                                ; preds = %2
  tail call void @zend_wrong_parameters_none_error() #13
  %6 = load ptr, ptr getelementptr inbounds nuw (i8, ptr @executor_globals, i64 960), align 8, !tbaa !7
  %7 = icmp ne ptr %6, null
  tail call void @llvm.assume(i1 %7)
  br label %spl_dllist_it_helper_rewind.exit

.critedge:                                        ; preds = %2
  %8 = getelementptr inbounds nuw i8, ptr %0, i64 32
  %9 = load ptr, ptr %8, align 8, !tbaa !4
  %10 = getelementptr inbounds i8, ptr %9, i64 -72
  %11 = getelementptr inbounds i8, ptr %9, i64 -64
  %12 = getelementptr inbounds i8, ptr %9, i64 -56
  %13 = load ptr, ptr %10, align 8, !tbaa !43
  %14 = getelementptr inbounds i8, ptr %9, i64 -52
  %15 = load i32, ptr %14, align 4, !tbaa !66
  %16 = load ptr, ptr %11, align 8, !tbaa !67
  %.not.i = icmp eq ptr %16, null
  br i1 %.not.i, label %23, label %17

17:                                               ; preds = %.critedge
  %18 = getelementptr inbounds nuw i8, ptr %16, i64 28
  %19 = load i32, ptr %18, align 4, !tbaa !4
  %20 = add i32 %19, -1
  store i32 %20, ptr %18, align 4, !tbaa !4
  %.not13.i = icmp eq i32 %20, 0
  br i1 %.not13.i, label %21, label %23

21:                                               ; preds = %17
  %22 = load ptr, ptr %11, align 8, !tbaa !67
  tail call void @_efree(ptr noundef %22) #13
  br label %23

23:                                               ; preds = %21, %17, %.critedge
  %24 = and i32 %15, 2
  %.not14.i = icmp eq i32 %24, 0
  br i1 %.not14.i, label %30, label %25

25:                                               ; preds = %23
  %26 = getelementptr inbounds nuw i8, ptr %13, i64 16
  %27 = load i32, ptr %26, align 8, !tbaa !58
  %28 = add nsw i32 %27, -1
  %29 = getelementptr inbounds nuw i8, ptr %13, i64 8
  br label %30

30:                                               ; preds = %25, %23
  %.sink.i = phi i32 [ %28, %25 ], [ 0, %23 ]
  %storemerge.in.i = phi ptr [ %29, %25 ], [ %13, %23 ]
  store i32 %.sink.i, ptr %12, align 4, !tbaa !73
  %storemerge.i = load ptr, ptr %storemerge.in.i, align 8, !tbaa !67
  store ptr %storemerge.i, ptr %11, align 8, !tbaa !67
  %.not15.i = icmp eq ptr %storemerge.i, null
  br i1 %.not15.i, label %spl_dllist_it_helper_rewind.exit, label %31

31:                                               ; preds = %30
  %32 = getelementptr inbounds nuw i8, ptr %storemerge.i, i64 28
  %33 = load i32, ptr %32, align 4, !tbaa !4
  %34 = add i32 %33, 1
  store i32 %34, ptr %32, align 4, !tbaa !4
  br label %spl_dllist_it_helper_rewind.exit

spl_dllist_it_helper_rewind.exit:                 ; preds = %31, %30, %5
  ret void
}